; ModuleID = '43/616.c'
source_filename = "43/616.c"
target datalayout = "e-m:e-p270:32:32-p271:32:32-p272:64:64-i64:64-f80:128-n8:16:32:64-S128"
target triple = "x86_64-pc-linux-gnu"

@.str = private unnamed_addr constant [3 x i8] c"%d\00", align 1
@.str.1 = private unnamed_addr constant [7 x i8] c"%d %d\0A\00", align 1

; Function Attrs: noinline nounwind uwtable
define dso_local i32 @main() #0 {
  %1 = alloca i32, align 4
  %2 = alloca i32, align 4
  %3 = alloca i32, align 4
  %4 = alloca i32, align 4
  %5 = alloca i32, align 4
  %6 = alloca i32, align 4
  %7 = alloca i32, align 4
  store i32 0, i32* %1, align 4
  %8 = call i32 (i8*, ...) @__isoc99_scanf(i8* getelementptr inbounds ([3 x i8], [3 x i8]* @.str, i64 0, i64 0), i32* %2)
  store i32 3, i32* %6, align 4
  br label %9

9:                                                ; preds = %61, %0
  %10 = load i32, i32* %6, align 4
  %11 = load i32, i32* %2, align 4
  %12 = sdiv i32 %11, 2
  %13 = icmp sle i32 %10, %12
  br i1 %13, label %14, label %64

14:                                               ; preds = %9
  store i32 3, i32* %4, align 4
  store i32 0, i32* %5, align 4
  br label %15

15:                                               ; preds = %27, %14
  %16 = load i32, i32* %4, align 4
  %17 = load i32, i32* %6, align 4
  %18 = sdiv i32 %17, 2
  %19 = icmp slt i32 %16, %18
  br i1 %19, label %20, label %30

20:                                               ; preds = %15
  %21 = load i32, i32* %6, align 4
  %22 = load i32, i32* %4, align 4
  %23 = srem i32 %21, %22
  %24 = icmp eq i32 %23, 0
  br i1 %24, label %25, label %26

25:                                               ; preds = %20
  store i32 1, i32* %5, align 4
  br label %30

26:                                               ; preds = %20
  br label %27

27:                                               ; preds = %26
  %28 = load i32, i32* %4, align 4
  %29 = add nsw i32 %28, 2
  store i32 %29, i32* %4, align 4
  br label %15

30:                                               ; preds = %25, %15
  %31 = load i32, i32* %5, align 4
  %32 = icmp eq i32 %31, 0
  br i1 %32, label %33, label %60

33:                                               ; preds = %30
  %34 = load i32, i32* %2, align 4
  %35 = load i32, i32* %6, align 4
  %36 = sub nsw i32 %34, %35
  store i32 %36, i32* %7, align 4
  store i32 3, i32* %4, align 4
  br label %37

37:                                               ; preds = %49, %33
  %38 = load i32, i32* %4, align 4
  %39 = load i32, i32* %7, align 4
  %40 = sdiv i32 %39, 2
  %41 = icmp slt i32 %38, %40
  br i1 %41, label %42, label %52

42:                                               ; preds = %37
  %43 = load i32, i32* %7, align 4
  %44 = load i32, i32* %4, align 4
  %45 = srem i32 %43, %44
  %46 = icmp eq i32 %45, 0
  br i1 %46, label %47, label %48

47:                                               ; preds = %42
  store i32 1, i32* %5, align 4
  br label %52

48:                                               ; preds = %42
  br label %49

49:                                               ; preds = %48
  %50 = load i32, i32* %4, align 4
  %51 = add nsw i32 %50, 2
  store i32 %51, i32* %4, align 4
  br label %37

52:                                               ; preds = %47, %37
  %53 = load i32, i32* %5, align 4
  %54 = icmp eq i32 %53, 0
  br i1 %54, label %55, label %59

55:                                               ; preds = %52
  %56 = load i32, i32* %6, align 4
  %57 = load i32, i32* %7, align 4
  %58 = call i32 (i8*, ...) @printf(i8* getelementptr inbounds ([7 x i8], [7 x i8]* @.str.1, i64 0, i64 0), i32 %56, i32 %57)
  br label %59

59:                                               ; preds = %55, %52
  br label %60

60:                                               ; preds = %59, %30
  br label %61

61:                                               ; preds = %60
  %62 = load i32, i32* %6, align 4
  %63 = add nsw i32 %62, 2
  store i32 %63, i32* %6, align 4
  br label %9

64:                                               ; preds = %9
  ret i32 0
}

declare dso_local i32 @__isoc99_scanf(i8*, ...) #1

declare dso_local i32 @printf(i8*, ...) #1


!llvm.module.flags = !{!0}
!llvm.ident = !{!1}

!0 = !{i32 1, !"wchar_size", i32 4}
!1 = !{!"clang version 10.0.0-4ubuntu1 "}
